target datalayout = "e-m:e-p270:32:32-p271:32:32-p272:64:64-i64:64-i128:128-f80:128-n8:16:32:64-S128"
target triple = "x86_64-pc-linux-gnu"

; Function Attrs: nounwind uwtable
define ptr @Wlc_NtkMuxTree3DecsDerive(ptr noundef %0, ptr noundef %1, i32 noundef %2, ptr noundef %3) #0 {
  %5 = alloca ptr, align 8
  %6 = alloca ptr, align 8
  %7 = alloca i32, align 4
  %8 = alloca ptr, align 8
  %9 = alloca ptr, align 8
  %10 = alloca i32, align 4
  %11 = alloca i32, align 4
  store ptr %0, ptr %5, align 8, !tbaa !38
  store ptr %1, ptr %6, align 8, !tbaa !3
  store i32 %2, ptr %7, align 4, !tbaa !8
  store ptr %3, ptr %8, align 8, !tbaa !42
  call void @llvm.lifetime.start.p0(i64 8, ptr %9) #12
  %12 = load ptr, ptr %8, align 8, !tbaa !42
  %13 = call i64 @strlen(ptr noundef %12) #13
  %14 = mul i64 8, %13
  %15 = call noalias ptr @malloc(i64 noundef %14) #14
  store ptr %15, ptr %9, align 8, !tbaa !43
  call void @llvm.lifetime.start.p0(i64 4, ptr %10) #12
  call void @llvm.lifetime.start.p0(i64 4, ptr %11) #12
  store i32 0, ptr %11, align 4, !tbaa !8
  %16 = load ptr, ptr %8, align 8, !tbaa !42
  %17 = call i64 @strlen(ptr noundef %16) #13
  %18 = trunc i64 %17 to i32
  %19 = sub nsw i32 %18, 1
  store i32 %19, ptr %10, align 4, !tbaa !8
  br label %20

20:                                               ; preds = %50, %4
  %21 = load i32, ptr %10, align 4, !tbaa !8
  %22 = icmp sge i32 %21, 0
  br i1 %22, label %23, label %53

23:                                               ; preds = %20
  %24 = load ptr, ptr %5, align 8, !tbaa !38
  %25 = load ptr, ptr %6, align 8, !tbaa !3
  %26 = load i32, ptr %11, align 4, !tbaa !8
  %27 = sext i32 %26 to i64
  %28 = getelementptr inbounds i32, ptr %25, i64 %27
  %29 = load ptr, ptr %8, align 8, !tbaa !42
  %30 = load i32, ptr %10, align 4, !tbaa !8
  %31 = sext i32 %30 to i64
  %32 = getelementptr inbounds i8, ptr %29, i64 %31
  %33 = load i8, ptr %32, align 1, !tbaa !45
  %34 = sext i8 %33 to i32
  %35 = sub nsw i32 %34, 48
  %36 = call ptr @Wlc_BlastDecoder2_rec(ptr noundef %24, ptr noundef %28, i32 noundef %35)
  %37 = load ptr, ptr %9, align 8, !tbaa !43
  %38 = load i32, ptr %10, align 4, !tbaa !8
  %39 = sext i32 %38 to i64
  %40 = getelementptr inbounds ptr, ptr %37, i64 %39
  store ptr %36, ptr %40, align 8, !tbaa !31
  %41 = load ptr, ptr %8, align 8, !tbaa !42
  %42 = load i32, ptr %10, align 4, !tbaa !8
  %43 = sext i32 %42 to i64
  %44 = getelementptr inbounds i8, ptr %41, i64 %43
  %45 = load i8, ptr %44, align 1, !tbaa !45
  %46 = sext i8 %45 to i32
  %47 = sub nsw i32 %46, 48
  %48 = load i32, ptr %11, align 4, !tbaa !8
  %49 = add nsw i32 %48, %47
  store i32 %49, ptr %11, align 4, !tbaa !8
  br label %50

50:                                               ; preds = %23
  %51 = load i32, ptr %10, align 4, !tbaa !8
  %52 = add nsw i32 %51, -1
  store i32 %52, ptr %10, align 4, !tbaa !8
  br label %20, !llvm.loop !50

53:                                               ; preds = %20
  %54 = load ptr, ptr %9, align 8, !tbaa !43
  call void @llvm.lifetime.end.p0(i64 4, ptr %11) #12
  call void @llvm.lifetime.end.p0(i64 4, ptr %10) #12
  call void @llvm.lifetime.end.p0(i64 8, ptr %9) #12
  ret ptr %54
}