; Function Attrs: nounwind uwtable
define noalias noundef ptr @Wlc_NtkMuxTree3DecsDerive(ptr noundef %0, ptr noundef %1, i32 noundef %2, ptr noundef readonly captures(none) %3) local_unnamed_addr #2 {
  %5 = tail call i64 @strlen(ptr noundef nonnull dereferenceable(1) %3) #24
  %6 = shl i64 %5, 3
  %7 = tail call noalias ptr @malloc(i64 noundef %6) #22
  %8 = trunc i64 %5 to i32
  %9 = icmp sgt i32 %8, 0
  br i1 %9, label %.lr.ph.preheader, label %._crit_edge

.lr.ph.preheader:                                 ; preds = %4
  %10 = and i64 %5, 2147483647
  br label %.lr.ph

.lr.ph:                                           ; preds = %.lr.ph.preheader, %.lr.ph
  %indvars.iv = phi i64 [ %10, %.lr.ph.preheader ], [ %indvars.iv.next, %.lr.ph ]
  %.016 = phi i32 [ 0, %.lr.ph.preheader ], [ %22, %.lr.ph ]
  %indvars.iv.next = add nsw i64 %indvars.iv, -1
  %11 = sext i32 %.016 to i64
  %12 = getelementptr inbounds i32, ptr %1, i64 %11
  %13 = getelementptr inbounds nuw i8, ptr %3, i64 %indvars.iv.next
  %14 = load i8, ptr %13, align 1, !tbaa !36
  %15 = sext i8 %14 to i32
  %16 = add nsw i32 %15, -48
  %17 = tail call ptr @Wlc_BlastDecoder2_rec(ptr noundef %0, ptr noundef %12, i32 noundef %16)
  %18 = getelementptr inbounds nuw ptr, ptr %7, i64 %indvars.iv.next
  store ptr %17, ptr %18, align 8, !tbaa !37
  %19 = load i8, ptr %13, align 1, !tbaa !36
  %20 = sext i8 %19 to i32
  %21 = add i32 %.016, -48
  %22 = add i32 %21, %20
  %23 = icmp samesign ugt i64 %indvars.iv, 1
  br i1 %23, label %.lr.ph, label %._crit_edge, !llvm.loop !41

._crit_edge:                                      ; preds = %.lr.ph, %4
  ret ptr %7
}